target datalayout = "e-m:e-p270:32:32-p271:32:32-p272:64:64-i64:64-i128:128-f80:128-n8:16:32:64-S128"
target triple = "x86_64-pc-linux-gnu"

%struct.ItemPointerData = type { %struct.BlockIdData, i16 }
%struct.BlockIdData = type { i16, i16 }
%struct.SysScanDescData = type { ptr, ptr, ptr, ptr, ptr, ptr }
%struct.TupleTableSlot = type { i32, i16, i16, ptr, ptr, ptr, ptr, ptr, %struct.ItemPointerData, i32 }
%struct.BufferHeapTupleTableSlot = type { %struct.HeapTupleTableSlot, i32 }
%struct.HeapTupleTableSlot = type { %struct.TupleTableSlot, ptr, i32, %struct.HeapTupleData }
%struct.HeapTupleData = type { i32, %struct.ItemPointerData, i32, ptr }

; Function Attrs: nounwind uwtable
define dso_local void @systable_inplace_update_cancel(ptr noundef %0) #0 {
  %2 = alloca ptr, align 8
  %3 = alloca ptr, align 8
  %4 = alloca ptr, align 8
  %5 = alloca ptr, align 8
  %6 = alloca ptr, align 8
  %7 = alloca ptr, align 8
  %8 = alloca i32, align 4
  store ptr %0, ptr %2, align 8
  call void @llvm.lifetime.start.p0(i64 8, ptr %3) #7
  %9 = load ptr, ptr %2, align 8
  store ptr %9, ptr %3, align 8
  call void @llvm.lifetime.start.p0(i64 8, ptr %4) #7
  %10 = load ptr, ptr %3, align 8
  %11 = getelementptr inbounds nuw %struct.SysScanDescData, ptr %10, i32 0, i32 0
  %12 = load ptr, ptr %11, align 8
  store ptr %12, ptr %4, align 8
  call void @llvm.lifetime.start.p0(i64 8, ptr %5) #7
  %13 = load ptr, ptr %3, align 8
  %14 = getelementptr inbounds nuw %struct.SysScanDescData, ptr %13, i32 0, i32 5
  %15 = load ptr, ptr %14, align 8
  store ptr %15, ptr %5, align 8
  call void @llvm.lifetime.start.p0(i64 8, ptr %6) #7
  %16 = load ptr, ptr %5, align 8
  store ptr %16, ptr %6, align 8
  call void @llvm.lifetime.start.p0(i64 8, ptr %7) #7
  %17 = load ptr, ptr %6, align 8
  %18 = getelementptr inbounds nuw %struct.BufferHeapTupleTableSlot, ptr %17, i32 0, i32 0
  %19 = getelementptr inbounds nuw %struct.HeapTupleTableSlot, ptr %18, i32 0, i32 1
  %20 = load ptr, ptr %19, align 8
  store ptr %20, ptr %7, align 8
  call void @llvm.lifetime.start.p0(i64 4, ptr %8) #7
  %21 = load ptr, ptr %6, align 8
  %22 = getelementptr inbounds nuw %struct.BufferHeapTupleTableSlot, ptr %21, i32 0, i32 1
  %23 = load i32, ptr %22, align 8
  store i32 %23, ptr %8, align 4
  %24 = load ptr, ptr %4, align 8
  %25 = load ptr, ptr %7, align 8
  %26 = load i32, ptr %8, align 4
  call void @heap_inplace_unlock(ptr noundef %24, ptr noundef %25, i32 noundef %26)
  %27 = load ptr, ptr %3, align 8
  call void @systable_endscan(ptr noundef %27)
  call void @llvm.lifetime.end.p0(i64 4, ptr %8) #7
  call void @llvm.lifetime.end.p0(i64 8, ptr %7) #7
  call void @llvm.lifetime.end.p0(i64 8, ptr %6) #7
  call void @llvm.lifetime.end.p0(i64 8, ptr %5) #7
  call void @llvm.lifetime.end.p0(i64 8, ptr %4) #7
  call void @llvm.lifetime.end.p0(i64 8, ptr %3) #7
  ret void
}