; Function Attrs: nounwind uwtable
define dso_local void @systable_inplace_update_cancel(ptr noundef %0) local_unnamed_addr #0 {
  %2 = load ptr, ptr %0, align 8
  %3 = getelementptr inbounds nuw i8, ptr %0, i64 40
  %4 = load ptr, ptr %3, align 8
  %5 = getelementptr inbounds nuw i8, ptr %4, i64 64
  %6 = load ptr, ptr %5, align 8
  %7 = getelementptr inbounds nuw i8, ptr %4, i64 104
  %8 = load i32, ptr %7, align 8
  tail call void @heap_inplace_unlock(ptr noundef %2, ptr noundef %6, i32 noundef %8) #7
  tail call void @systable_endscan(ptr noundef nonnull %0)
  ret void
}